; ModuleID = 'source-C-CXX/56/2629.c'
source_filename = "source-C-CXX/56/2629.c"
target datalayout = "e-m:e-p270:32:32-p271:32:32-p272:64:64-i64:64-f80:128-n8:16:32:64-S128"
target triple = "x86_64-pc-linux-gnu"

@.str = private unnamed_addr constant [3 x i8] c"%d\00", align 1
@.str.1 = private unnamed_addr constant [3 x i8] c"%s\00", align 1

; Function Attrs: nofree nounwind sspstrong uwtable
define dso_local i32 @main() local_unnamed_addr #0 {
  %1 = alloca i32, align 4
  %2 = alloca [50 x [100 x i8]], align 16
  %3 = bitcast i32* %1 to i8*
  call void @llvm.lifetime.start.p0i8(i64 4, i8* nonnull %3) #5
  %4 = getelementptr inbounds [50 x [100 x i8]], [50 x [100 x i8]]* %2, i64 0, i64 0, i64 0
  call void @llvm.lifetime.start.p0i8(i64 5000, i8* nonnull %4) #5
  %5 = call i32 (i8*, ...) @__isoc99_scanf(i8* getelementptr inbounds ([3 x i8], [3 x i8]* @.str, i64 0, i64 0), i32* nonnull %1)
  %6 = load i32, i32* %1, align 4, !tbaa !5
  %7 = icmp sgt i32 %6, 0
  br i1 %7, label %12, label %68

8:                                                ; preds = %12
  %9 = icmp sgt i32 %17, 0
  br i1 %9, label %10, label %68

10:                                               ; preds = %8
  %11 = zext i32 %17 to i64
  br label %21

12:                                               ; preds = %0, %12
  %13 = phi i64 [ %16, %12 ], [ 0, %0 ]
  %14 = getelementptr inbounds [50 x [100 x i8]], [50 x [100 x i8]]* %2, i64 0, i64 %13, i64 0
  %15 = call i32 (i8*, ...) @__isoc99_scanf(i8* getelementptr inbounds ([3 x i8], [3 x i8]* @.str.1, i64 0, i64 0), i8* nonnull %14)
  %16 = add nuw nsw i64 %13, 1
  %17 = load i32, i32* %1, align 4, !tbaa !5
  %18 = sext i32 %17 to i64
  %19 = icmp slt i64 %16, %18
  br i1 %19, label %12, label %8, !llvm.loop !9

20:                                               ; preds = %57
  br i1 %9, label %60, label %68

21:                                               ; preds = %10, %57
  %22 = phi i64 [ 0, %10 ], [ %58, %57 ]
  %23 = getelementptr inbounds [50 x [100 x i8]], [50 x [100 x i8]]* %2, i64 0, i64 %22, i64 0
  %24 = call i64 @strlen(i8* noundef nonnull %23) #6
  %25 = trunc i64 %24 to i32
  %26 = shl i64 %24, 32
  %27 = add i64 %26, -8589934592
  %28 = ashr exact i64 %27, 32
  %29 = getelementptr inbounds [50 x [100 x i8]], [50 x [100 x i8]]* %2, i64 0, i64 %22, i64 %28
  %30 = add i64 %26, -12884901888
  %31 = ashr exact i64 %30, 32
  %32 = getelementptr inbounds [50 x [100 x i8]], [50 x [100 x i8]]* %2, i64 0, i64 %22, i64 %31
  %33 = icmp sgt i32 %25, 0
  br i1 %33, label %34, label %57

34:                                               ; preds = %21
  %35 = add i64 %26, -4294967296
  %36 = ashr exact i64 %35, 32
  %37 = getelementptr inbounds [50 x [100 x i8]], [50 x [100 x i8]]* %2, i64 0, i64 %22, i64 %36
  %38 = load i8, i8* %37, align 1, !tbaa !11
  %39 = icmp eq i8 %38, 103
  br i1 %39, label %46, label %40

40:                                               ; preds = %34
  store i8 0, i8* %29, align 1, !tbaa !11
  %41 = add i32 %25, -1
  %42 = and i32 %25, 7
  %43 = icmp ult i32 %41, 7
  br i1 %43, label %51, label %44

44:                                               ; preds = %40
  %45 = and i32 %25, -8
  br label %47

46:                                               ; preds = %34
  store i8 0, i8* %32, align 1, !tbaa !11
  br label %57

47:                                               ; preds = %47, %44
  %48 = phi i32 [ %45, %44 ], [ %49, %47 ]
  %49 = add i32 %48, -8
  %50 = icmp eq i32 %49, 0
  br i1 %50, label %51, label %47, !llvm.loop !12

51:                                               ; preds = %47, %40
  %52 = icmp eq i32 %42, 0
  br i1 %52, label %57, label %53

53:                                               ; preds = %51, %53
  %54 = phi i32 [ %55, %53 ], [ %42, %51 ]
  %55 = add i32 %54, -1
  %56 = icmp eq i32 %55, 0
  br i1 %56, label %57, label %53, !llvm.loop !14

57:                                               ; preds = %51, %53, %46, %21
  %58 = add nuw nsw i64 %22, 1
  %59 = icmp eq i64 %58, %11
  br i1 %59, label %20, label %21, !llvm.loop !16

60:                                               ; preds = %20, %60
  %61 = phi i64 [ %64, %60 ], [ 0, %20 ]
  %62 = getelementptr inbounds [50 x [100 x i8]], [50 x [100 x i8]]* %2, i64 0, i64 %61, i64 0
  %63 = call i32 @puts(i8* nonnull %62)
  %64 = add nuw nsw i64 %61, 1
  %65 = load i32, i32* %1, align 4, !tbaa !5
  %66 = sext i32 %65 to i64
  %67 = icmp slt i64 %64, %66
  br i1 %67, label %60, label %68, !llvm.loop !17

68:                                               ; preds = %60, %8, %0, %20
  call void @llvm.lifetime.end.p0i8(i64 5000, i8* nonnull %4) #5
  call void @llvm.lifetime.end.p0i8(i64 4, i8* nonnull %3) #5
  ret i32 0
}

; Function Attrs: argmemonly mustprogress nofree nosync nounwind willreturn
declare void @llvm.lifetime.start.p0i8(i64 immarg, i8* nocapture) #1

; Function Attrs: nofree nounwind
declare noundef i32 @__isoc99_scanf(i8* nocapture noundef readonly, ...) local_unnamed_addr #2

; Function Attrs: argmemonly mustprogress nofree nounwind readonly willreturn
declare i64 @strlen(i8* nocapture) local_unnamed_addr #3

; Function Attrs: argmemonly mustprogress nofree nosync nounwind willreturn
declare void @llvm.lifetime.end.p0i8(i64 immarg, i8* nocapture) #1

; Function Attrs: nofree nounwind
declare noundef i32 @puts(i8* nocapture noundef readonly) local_unnamed_addr #4


!llvm.module.flags = !{!0, !1, !2, !3}
!llvm.ident = !{!4}

!0 = !{i32 1, !"wchar_size", i32 4}
!1 = !{i32 7, !"PIC Level", i32 2}
!2 = !{i32 7, !"PIE Level", i32 2}
!3 = !{i32 7, !"uwtable", i32 1}
!4 = !{!"clang version 13.0.0"}
!5 = !{!6, !6, i64 0}
!6 = !{!"int", !7, i64 0}
!7 = !{!"omnipotent char", !8, i64 0}
!8 = !{!"Simple C/C++ TBAA"}
!9 = distinct !{!9, !10}
!10 = !{!"llvm.loop.mustprogress"}
!11 = !{!7, !7, i64 0}
!12 = distinct !{!12, !10, !13}
!13 = !{!"llvm.loop.unswitch.partial.disable"}
!14 = distinct !{!14, !15}
!15 = !{!"llvm.loop.unroll.disable"}
!16 = distinct !{!16, !10}
!17 = distinct !{!17, !10}
